target datalayout = "e-m:e-p270:32:32-p271:32:32-p272:64:64-i64:64-i128:128-f80:128-n8:16:32:64-S128"
target triple = "x86_64-pc-linux-gnu"

%struct.timeval = type { i64, i64 }
%struct.per_transfer = type { ptr, ptr, ptr, ptr, ptr, i64, i64, i64, i64, %struct.timeval, %struct.timeval, ptr, i32, ptr, i32, %struct.ProgressData, %struct.OutStruct, %struct.OutStruct, %struct.OutStruct, %struct.HdrCbData, i64, i64, i64, i64, i64, i64, i64, i64, i8, i8, ptr, ptr, i8, i8, i8, i8, i8, i8 }
%struct.ProgressData = type { i32, i64, %struct.timeval, i32, ptr, i64, i32, i32, i32 }
%struct.OutStruct = type { ptr, i8, i8, i8, i8, ptr, i64, i64 }
%struct.HdrCbData = type { ptr, ptr, ptr, ptr, ptr, ptr, i8 }
%struct.OperationConfig = type { i8, ptr, ptr, ptr, ptr, ptr, ptr, i8, i8, i8, i64, i8, i8, i8, i8, i8, ptr, i8, ptr, i8, ptr, i64, ptr, %struct.dynbuf, ptr, ptr, i64, i64, i64, i64, ptr, ptr, ptr, ptr, i64, i64, i16, ptr, i64, i64, i64, i64, ptr, ptr, ptr, ptr, ptr, ptr, ptr, ptr, ptr, ptr, ptr, ptr, ptr, ptr, i32, ptr, ptr, ptr, ptr, i8, ptr, i8, i8, i8, i8, i8, i8, i8, i8, i8, i8, i8, i8, i8, i8, ptr, ptr, ptr, ptr, ptr, ptr, i64, ptr, ptr, ptr, ptr, ptr, ptr, ptr, ptr, ptr, ptr, ptr, ptr, ptr, ptr, ptr, ptr, ptr, ptr, ptr, ptr, ptr, ptr, ptr, ptr, ptr, ptr, ptr, ptr, ptr, ptr, i8, ptr, ptr, ptr, ptr, i64, i8, i8, i8, i8, i8, i8, i8, i8, i8, i8, i8, i8, i8, i8, i8, i8, i8, i8, i8, i8, ptr, ptr, ptr, ptr, i64, i64, i64, i64, i64, i32, i64, ptr, ptr, ptr, ptr, ptr, ptr, ptr, ptr, i32, i64, i64, i8, i8, i8, i8, i32, ptr, i8, i64, ptr, ptr, i8, i8, i64, i8, i8, i64, i64, ptr, ptr, i32, i64, i64, i8, i8, i8, i8, i8, i8, i8, i8, i64, i64, i8, i32, i8, i64, i8, i8, i8, i8, i8, i8, i8, i8, i8, ptr, i8, ptr, i8, i8, i8, i64, i8, i8, i8, i64, i8, ptr, i8, ptr, i32, i8, ptr, ptr, ptr, %struct.State, i8, i8, ptr, ptr, ptr }
%struct.dynbuf = type { ptr, i64, i64, i64 }
%struct.State = type { ptr, ptr, ptr, ptr, ptr, ptr, i64, i64, i64, i64 }

@tool_readbusy_cb.rate = internal global i64 500, align 8
@tool_readbusy_cb.prev = internal global %struct.timeval zeroinitializer, align 8
@tool_readbusy_cb.ulprev = internal global i64 0, align 8

; Function Attrs: nounwind uwtable
define dso_local i32 @tool_readbusy_cb(ptr noundef %0, i64 noundef %1, i64 noundef %2, i64 noundef %3, i64 noundef %4) #0 {
  %6 = alloca ptr, align 8
  %7 = alloca i64, align 8
  %8 = alloca i64, align 8
  %9 = alloca i64, align 8
  %10 = alloca i64, align 8
  %11 = alloca ptr, align 8
  %12 = alloca ptr, align 8
  %13 = alloca %struct.timeval, align 8
  store ptr %0, ptr %6, align 8, !tbaa !11
  store i64 %1, ptr %7, align 8, !tbaa !9
  store i64 %2, ptr %8, align 8, !tbaa !9
  store i64 %3, ptr %9, align 8, !tbaa !9
  store i64 %4, ptr %10, align 8, !tbaa !9
  call void @llvm.lifetime.start.p0(i64 8, ptr %11) #5
  %14 = load ptr, ptr %6, align 8, !tbaa !11
  store ptr %14, ptr %11, align 8, !tbaa !12
  call void @llvm.lifetime.start.p0(i64 8, ptr %12) #5
  %15 = load ptr, ptr %11, align 8, !tbaa !12
  %16 = getelementptr inbounds nuw %struct.per_transfer, ptr %15, i32 0, i32 2
  %17 = load ptr, ptr %16, align 8, !tbaa !14
  store ptr %17, ptr %12, align 8, !tbaa !28
  %18 = load ptr, ptr %12, align 8, !tbaa !28
  %19 = getelementptr inbounds nuw %struct.OperationConfig, ptr %18, i32 0, i32 122
  %20 = load i8, ptr %19, align 2, !tbaa !46, !range !48, !noundef !49
  %21 = trunc i8 %20 to i1
  br i1 %21, label %22, label %63

22:                                               ; preds = %5
  %23 = load i64, ptr @tool_readbusy_cb.ulprev, align 8, !tbaa !9
  %24 = load i64, ptr %10, align 8, !tbaa !9
  %25 = icmp eq i64 %23, %24
  br i1 %25, label %26, label %49

26:                                               ; preds = %22
  call void @llvm.lifetime.start.p0(i64 16, ptr %13) #5
  %27 = call { i64, i64 } @tvnow()
  %28 = getelementptr inbounds nuw { i64, i64 }, ptr %13, i32 0, i32 0
  %29 = extractvalue { i64, i64 } %27, 0
  store i64 %29, ptr %28, align 8
  %30 = getelementptr inbounds nuw { i64, i64 }, ptr %13, i32 0, i32 1
  %31 = extractvalue { i64, i64 } %27, 1
  store i64 %31, ptr %30, align 8
  %32 = load i64, ptr @tool_readbusy_cb.prev, align 8, !tbaa !40
  %33 = icmp ne i64 %32, 0
  br i1 %33, label %34, label %48

34:                                               ; preds = %26
  %35 = load i64, ptr @tool_readbusy_cb.rate, align 8, !tbaa !9
  %36 = sdiv i64 %35, 4
  %37 = getelementptr inbounds nuw { i64, i64 }, ptr %13, i32 0, i32 0
  %38 = load i64, ptr %37, align 8
  %39 = getelementptr inbounds nuw { i64, i64 }, ptr %13, i32 0, i32 1
  %40 = load i64, ptr %39, align 8
  %41 = load i64, ptr @tool_readbusy_cb.prev, align 8
  %42 = load i64, ptr getelementptr inbounds nuw ({ i64, i64 }, ptr @tool_readbusy_cb.prev, i32 0, i32 1), align 8
  %43 = call i64 @tvdiff(i64 %38, i64 %40, i64 %41, i64 %42)
  %44 = sdiv i64 %43, 4
  %45 = sub nsw i64 %36, %44
  %46 = load i64, ptr @tool_readbusy_cb.rate, align 8, !tbaa !9
  %47 = sub nsw i64 %46, %45
  store i64 %47, ptr @tool_readbusy_cb.rate, align 8, !tbaa !9
  br label %48

48:                                               ; preds = %34, %26
  call void @llvm.memcpy.p0.p0.i64(ptr align 8 @tool_readbusy_cb.prev, ptr align 8 %13, i64 16, i1 false), !tbaa.struct !50
  call void @llvm.lifetime.end.p0(i64 16, ptr %13) #5
  br label %51

49:                                               ; preds = %22
  store i64 50, ptr @tool_readbusy_cb.rate, align 8, !tbaa !9
  %50 = load i64, ptr %10, align 8, !tbaa !9
  store i64 %50, ptr @tool_readbusy_cb.ulprev, align 8, !tbaa !9
  br label %51

51:                                               ; preds = %49, %48
  %52 = load i64, ptr @tool_readbusy_cb.rate, align 8, !tbaa !9
  %53 = icmp sge i64 %52, 50
  br i1 %53, label %54, label %61

54:                                               ; preds = %51
  %55 = load ptr, ptr %12, align 8, !tbaa !28
  %56 = getelementptr inbounds nuw %struct.OperationConfig, ptr %55, i32 0, i32 122
  store i8 0, ptr %56, align 2, !tbaa !46
  %57 = load ptr, ptr %11, align 8, !tbaa !12
  %58 = getelementptr inbounds nuw %struct.per_transfer, ptr %57, i32 0, i32 4
  %59 = load ptr, ptr %58, align 8, !tbaa !51
  %60 = call i32 @curl_easy_pause(ptr noundef %59, i32 noundef 0)
  br label %62

61:                                               ; preds = %51
  call void @tool_go_sleep(i64 noundef 25)
  br label %62

62:                                               ; preds = %61, %54
  br label %63

63:                                               ; preds = %62, %5
  %64 = load ptr, ptr %11, align 8, !tbaa !12
  %65 = getelementptr inbounds nuw %struct.per_transfer, ptr %64, i32 0, i32 33
  %66 = load i8, ptr %65, align 1, !tbaa !52, !range !48, !noundef !49
  %67 = trunc i8 %66 to i1
  %68 = select i1 %67, i32 0, i32 268435457
  call void @llvm.lifetime.end.p0(i64 8, ptr %12) #5
  call void @llvm.lifetime.end.p0(i64 8, ptr %11) #5
  ret i32 %68
}