; Function Attrs: nounwind uwtable
define dso_local range(i32 0, 268435458) i32 @tool_readbusy_cb(ptr noundef readonly captures(none) %0, i64 noundef %1, i64 noundef %2, i64 noundef %3, i64 noundef %4) local_unnamed_addr #0 {
  %6 = getelementptr inbounds nuw i8, ptr %0, i64 16
  %7 = load ptr, ptr %6, align 8, !tbaa !4
  %8 = getelementptr inbounds nuw i8, ptr %7, i64 842
  %9 = load i8, ptr %8, align 2, !tbaa !41, !range !42, !noundef !43
  %10 = trunc nuw i8 %9 to i1
  br i1 %10, label %11, label %30

11:                                               ; preds = %5
  %12 = load i64, ptr @tool_readbusy_cb.ulprev, align 8, !tbaa !37
  %13 = icmp eq i64 %12, %4
  br i1 %13, label %14, label %.thread

14:                                               ; preds = %11
  %15 = tail call { i64, i64 } @tvnow() #6
  %16 = extractvalue { i64, i64 } %15, 0
  %17 = extractvalue { i64, i64 } %15, 1
  %18 = load i64, ptr @tool_readbusy_cb.prev.0, align 8, !tbaa !35
  %.not = icmp eq i64 %18, 0
  %.pr.pr = load i64, ptr @tool_readbusy_cb.rate, align 8, !tbaa !37
  br i1 %.not, label %thread-pre-split, label %19

19:                                               ; preds = %14
  %.neg8 = sdiv i64 %.pr.pr, -4
  %20 = load i64, ptr @tool_readbusy_cb.prev.1, align 8
  %21 = tail call i64 @tvdiff(i64 %16, i64 %17, i64 %18, i64 %20) #6
  %.neg.neg = sdiv i64 %21, 4
  %.neg9 = add nsw i64 %.neg.neg, %.neg8
  %22 = load i64, ptr @tool_readbusy_cb.rate, align 8, !tbaa !37
  %23 = add i64 %.neg9, %22
  store i64 %23, ptr @tool_readbusy_cb.rate, align 8, !tbaa !37
  br label %thread-pre-split

.thread:                                          ; preds = %11
  store i64 50, ptr @tool_readbusy_cb.rate, align 8, !tbaa !37
  store i64 %4, ptr @tool_readbusy_cb.ulprev, align 8, !tbaa !37
  br label %25

thread-pre-split:                                 ; preds = %14, %19
  %.pr = phi i64 [ %23, %19 ], [ %.pr.pr, %14 ]
  store i64 %16, ptr @tool_readbusy_cb.prev.0, align 8, !tbaa !37
  store i64 %17, ptr @tool_readbusy_cb.prev.1, align 8, !tbaa !37
  %24 = icmp sgt i64 %.pr, 49
  br i1 %24, label %25, label %29

25:                                               ; preds = %.thread, %thread-pre-split
  store i8 0, ptr %8, align 2, !tbaa !41
  %26 = getelementptr inbounds nuw i8, ptr %0, i64 32
  %27 = load ptr, ptr %26, align 8, !tbaa !44
  %28 = tail call i32 @curl_easy_pause(ptr noundef %27, i32 noundef 0) #6
  br label %30

29:                                               ; preds = %thread-pre-split
  tail call void @tool_go_sleep(i64 noundef 25) #6
  br label %30

30:                                               ; preds = %25, %29, %5
  %31 = getelementptr inbounds nuw i8, ptr %0, i64 473
  %32 = load i8, ptr %31, align 1, !tbaa !45, !range !42, !noundef !43
  %33 = trunc nuw i8 %32 to i1
  %34 = select i1 %33, i32 0, i32 268435457
  ret i32 %34
}